; Function Attrs: mustprogress uwtable
define hidden void @_ZN2cv6bgsegm27BackgroundSubtractorCNTImpl20setMinPixelStabilityEi(ptr noundef nonnull align 8 captures(none) dereferenceable(312) %0, i32 noundef %1) unnamed_addr #0 align 2 personality ptr @__gxx_personality_v0 {
  %3 = alloca %"class.std::__cxx11::basic_string", align 8
  %4 = alloca %"class.std::allocator", align 1
  %5 = icmp sgt i32 %1, 0
  %6 = getelementptr inbounds nuw i8, ptr %0, i64 12
  %7 = load i32, ptr %6, align 4
  %8 = icmp slt i32 %1, %7
  %or.cond = select i1 %5, i1 %8, i1 false
  br i1 %or.cond, label %19, label %9

9:                                                ; preds = %2
  call void @llvm.lifetime.start.p0(i64 32, ptr nonnull %3) #15
  call void @llvm.lifetime.start.p0(i64 1, ptr nonnull %4) #15
  call void @_ZNSt7__cxx1112basic_stringIcSt11char_traitsIcESaIcEEC2EPKcRKS3_(ptr noundef nonnull align 8 dereferenceable(32) %3, ptr noundef nonnull @.str.2, ptr noundef nonnull align 1 dereferenceable(1) %4)
  invoke void @_ZN2cv5errorEiRKNSt7__cxx1112basic_stringIcSt11char_traitsIcESaIcEEEPKcS9_i(i32 noundef -215, ptr noundef nonnull align 8 dereferenceable(32) %3, ptr noundef nonnull @__func__._ZN2cv6bgsegm27BackgroundSubtractorCNTImpl20setMinPixelStabilityEi, ptr noundef nonnull @.str.1, i32 noundef 131) #16
          to label %10 unwind label %11

10:                                               ; preds = %9
  unreachable

11:                                               ; preds = %9
  %12 = landingpad { ptr, i32 }
          cleanup
  %13 = load ptr, ptr %3, align 8, !tbaa !29
  %14 = getelementptr inbounds nuw i8, ptr %3, i64 16
  %15 = icmp eq ptr %13, %14
  br i1 %15, label %_ZNKSt7__cxx1112basic_stringIcSt11char_traitsIcESaIcEE11_M_is_localEv.exit.thread.i.i, label %_ZNKSt7__cxx1112basic_stringIcSt11char_traitsIcESaIcEE11_M_is_localEv.exit.i.i

_ZNKSt7__cxx1112basic_stringIcSt11char_traitsIcESaIcEE11_M_is_localEv.exit.thread.i.i: ; preds = %11
  %16 = getelementptr inbounds nuw i8, ptr %3, i64 8
  %17 = load i64, ptr %16, align 8, !tbaa !33
  %18 = icmp ult i64 %17, 16
  call void @llvm.assume(i1 %18)
  br label %_ZNSt7__cxx1112basic_stringIcSt11char_traitsIcESaIcEED2Ev.exit

_ZNKSt7__cxx1112basic_stringIcSt11char_traitsIcESaIcEE11_M_is_localEv.exit.i.i: ; preds = %11
  call void @_ZdlPv(ptr noundef %13) #17
  br label %_ZNSt7__cxx1112basic_stringIcSt11char_traitsIcESaIcEED2Ev.exit

_ZNSt7__cxx1112basic_stringIcSt11char_traitsIcESaIcEED2Ev.exit: ; preds = %_ZNKSt7__cxx1112basic_stringIcSt11char_traitsIcESaIcEE11_M_is_localEv.exit.i.i, %_ZNKSt7__cxx1112basic_stringIcSt11char_traitsIcESaIcEE11_M_is_localEv.exit.thread.i.i
  call void @llvm.lifetime.end.p0(i64 1, ptr nonnull %4) #15
  call void @llvm.lifetime.end.p0(i64 32, ptr nonnull %3) #15
  resume { ptr, i32 } %12

19:                                               ; preds = %2
  %20 = getelementptr inbounds nuw i8, ptr %0, i64 8
  store i32 %1, ptr %20, align 8, !tbaa !6
  ret void
}